#include <math.h>
#include <stdio.h>
#include <stdlib.h>
#include <string.h>

void lunhuan(int b[],int c,int d)
{
	int i,j,t;
	for(i=c-d;i<=c-1;i++)
	{
		for(j=1;j<=c-d;j++)
		{
			t=b[i-j+1];
			b[i-j+1]=b[i-j];
			b[i-j]=t;
		}
	}
}
int main()
{
	int a[101],n,m,i;
	scanf("%d%d",&n,&m);
	for(i=0;i<=n-1;i++)
	{
		scanf("%d",&a[i]);
	}
	lunhuan(a,n,m);
	for(i=0;i<=n-1;i++)
	{
		if (i==0)
			printf("%d",a[i]);
		else
		printf(" %d",a[i]);
	}
	return 0;
}